target datalayout = "e-m:e-p270:32:32-p271:32:32-p272:64:64-i64:64-i128:128-f80:128-n8:16:32:64-S128"
target triple = "x86_64-unknown-linux-gnu"

%"class.dpx::Writer" = type { ptr, %"struct.dpx::Header", i64, ptr }
%"struct.dpx::Header" = type <{ %"struct.dpx::GenericHeader", %"struct.dpx::IndustryHeader", i8, [3 x i8] }>
%"struct.dpx::GenericHeader" = type { i32, i32, [8 x i8], i32, i32, i32, i32, i32, [100 x i8], [24 x i8], [100 x i8], [200 x i8], [200 x i8], i32, [104 x i8], i16, i16, i32, i32, [8 x %"struct.dpx::ImageElement"], [52 x i8], i32, i32, float, float, i32, i32, [100 x i8], [24 x i8], [32 x i8], [32 x i8], [4 x i16], [2 x i32], float, float, [20 x i8] }
%"struct.dpx::ImageElement" = type { i32, i32, float, i32, float, i8, i8, i8, i8, i16, i16, i32, i32, i32, [32 x i8] }
%"struct.dpx::IndustryHeader" = type { [2 x i8], [2 x i8], [2 x i8], [6 x i8], [4 x i8], [32 x i8], i32, i32, i32, float, float, [32 x i8], [100 x i8], [56 x i8], i32, i32, i8, i8, i8, i8, float, float, float, float, float, float, float, float, float, float, [76 x i8] }

; Function Attrs: mustprogress uwtable
define linkonce_odr hidden noundef zeroext i1 @_ZN9OutStream10WriteCheckEPvm(ptr noundef nonnull align 8 dereferenceable(16) %this, ptr noundef %buf, i64 noundef %size) #6 comdat align 2 {
entry:
  %this.addr = alloca ptr, align 8
  %buf.addr = alloca ptr, align 8
  %size.addr = alloca i64, align 8
  store ptr %this, ptr %this.addr, align 8
  store ptr %buf, ptr %buf.addr, align 8
  store i64 %size, ptr %size.addr, align 8
  %this1 = load ptr, ptr %this.addr, align 8
  %0 = load ptr, ptr %buf.addr, align 8
  %1 = load i64, ptr %size.addr, align 8
  %vtable = load ptr, ptr %this1, align 8
  %vfn = getelementptr inbounds ptr, ptr %vtable, i64 3
  %2 = load ptr, ptr %vfn, align 8
  %call = call noundef i64 %2(ptr noundef nonnull align 8 dereferenceable(16) %this1, ptr noundef %0, i64 noundef %1)
  %3 = load i64, ptr %size.addr, align 8
  %cmp = icmp eq i64 %call, %3
  ret i1 %cmp
}

; Function Attrs: mustprogress nounwind uwtable
define linkonce_odr hidden noundef i32 @_ZNK3dpx13GenericHeader8UserSizeEv(ptr noundef nonnull align 4 dereferenceable(1664) %this) #1 comdat align 2 {
entry:
  %this.addr = alloca ptr, align 8
  store ptr %this, ptr %this.addr, align 8
  %this1 = load ptr, ptr %this.addr, align 8
  %userSize = getelementptr inbounds %"struct.dpx::GenericHeader", ptr %this1, i32 0, i32 7
  %0 = load i32, ptr %userSize, align 4
  ret i32 %0
}

; Function Attrs: mustprogress uwtable
define hidden noundef zeroext i1 @_ZN3dpx6Writer13WriteUserDataEPv(ptr noundef nonnull align 8 dereferenceable(2080) %this, ptr noundef %data) #6 align 2 {
entry:
  %retval = alloca i1, align 1
  %this.addr = alloca ptr, align 8
  %data.addr = alloca ptr, align 8
  %size = alloca i64, align 8
  store ptr %this, ptr %this.addr, align 8
  store ptr %data, ptr %data.addr, align 8
  %this1 = load ptr, ptr %this.addr, align 8
  %header = getelementptr inbounds %"class.dpx::Writer", ptr %this1, i32 0, i32 1
  %call = call noundef i32 @_ZNK3dpx13GenericHeader8UserSizeEv(ptr noundef nonnull align 4 dereferenceable(1664) %header)
  %conv = zext i32 %call to i64
  store i64 %conv, ptr %size, align 8
  %fd = getelementptr inbounds %"class.dpx::Writer", ptr %this1, i32 0, i32 3
  %0 = load ptr, ptr %fd, align 8
  %1 = load ptr, ptr %data.addr, align 8
  %2 = load i64, ptr %size, align 8
  %call2 = call noundef zeroext i1 @_ZN9OutStream10WriteCheckEPvm(ptr noundef nonnull align 8 dereferenceable(16) %0, ptr noundef %1, i64 noundef %2)
  br i1 %call2, label %if.end, label %if.then

if.then:                                          ; preds = %entry
  store i1 false, ptr %retval, align 1
  br label %return

if.end:                                           ; preds = %entry
  %3 = load i64, ptr %size, align 8
  %fileLoc = getelementptr inbounds %"class.dpx::Writer", ptr %this1, i32 0, i32 2
  %4 = load i64, ptr %fileLoc, align 8
  %add = add i64 %4, %3
  store i64 %add, ptr %fileLoc, align 8
  store i1 true, ptr %retval, align 1
  br label %return

return:                                           ; preds = %if.end, %if.then
  %5 = load i1, ptr %retval, align 1
  ret i1 %5
}