; Function Attrs: mustprogress uwtable
define hidden noundef zeroext i1 @_ZN3dpx6Writer13WriteUserDataEPv(ptr nocapture noundef nonnull align 8 dereferenceable(2080) %this, ptr noundef %data) local_unnamed_addr #5 align 2 {
entry:
  %userSize.i = getelementptr inbounds i8, ptr %this, i64 40
  %0 = load i32, ptr %userSize.i, align 8
  %conv = zext i32 %0 to i64
  %fd = getelementptr inbounds i8, ptr %this, i64 2072
  %1 = load ptr, ptr %fd, align 8
  %vtable.i = load ptr, ptr %1, align 8
  %vfn.i = getelementptr inbounds i8, ptr %vtable.i, i64 24
  %2 = load ptr, ptr %vfn.i, align 8
  %call.i = tail call noundef i64 %2(ptr noundef nonnull align 8 dereferenceable(16) %1, ptr noundef %data, i64 noundef %conv)
  %cmp.i = icmp eq i64 %call.i, %conv
  br i1 %cmp.i, label %if.end, label %return

if.end:                                           ; preds = %entry
  %fileLoc = getelementptr inbounds i8, ptr %this, i64 2064
  %3 = load i64, ptr %fileLoc, align 8
  %add = add i64 %3, %conv
  store i64 %add, ptr %fileLoc, align 8
  br label %return

return:                                           ; preds = %entry, %if.end
  ret i1 %cmp.i
}